target datalayout = "e-m:e-p270:32:32-p271:32:32-p272:64:64-i64:64-i128:128-f80:128-n8:16:32:64-S128"
target triple = "x86_64-pc-linux-gnu"

%struct.b2World = type { %struct.b2ArenaAllocator, %struct.b2BroadPhase, %struct.b2ConstraintGraph, %struct.b2IdPool, %struct.b2BodyArray, %struct.b2IdPool, %struct.b2SolverSetArray, %struct.b2IdPool, %struct.b2JointArray, %struct.b2IdPool, %struct.b2ContactArray, %struct.b2IdPool, %struct.b2IslandArray, %struct.b2IdPool, %struct.b2IdPool, %struct.b2ShapeArray, %struct.b2ChainShapeArray, %struct.b2SensorArray, %struct.b2TaskContextArray, %struct.b2SensorTaskContextArray, %struct.b2BodyMoveEventArray, %struct.b2SensorBeginTouchEventArray, %struct.b2ContactBeginTouchEventArray, [2 x %struct.b2SensorEndTouchEventArray], [2 x %struct.b2ContactEndTouchEventArray], i32, %struct.b2ContactHitEventArray, %struct.b2BitSet, %struct.b2BitSet, %struct.b2BitSet, i64, i32, %struct.b2Vec2, float, float, float, float, float, float, float, float, ptr, ptr, i16, %struct.b2Profile, ptr, ptr, ptr, ptr, i32, ptr, ptr, ptr, ptr, ptr, float, i32, i32, i16, i8, i8, i8, i8, i8, i8 }
%struct.b2ArenaAllocator = type { ptr, i32, i32, i32, i32, %struct.b2ArenaEntryArray }
%struct.b2ArenaEntryArray = type { ptr, i32, i32 }
%struct.b2BroadPhase = type { [3 x %struct.b2DynamicTree], i32, %struct.b2HashSet, %struct.b2IntArray, ptr, ptr, i32, %struct.b2AtomicInt, %struct.b2HashSet }
%struct.b2DynamicTree = type { ptr, i32, i32, i32, i32, i32, ptr, ptr, ptr, ptr, i32 }
%struct.b2IntArray = type { ptr, i32, i32 }
%struct.b2AtomicInt = type { i32 }
%struct.b2HashSet = type { ptr, i32, i32 }
%struct.b2ConstraintGraph = type { [12 x %struct.b2GraphColor] }
%struct.b2GraphColor = type { %struct.b2BitSet, %struct.b2ContactSimArray, %struct.b2JointSimArray, %union.anon }
%struct.b2ContactSimArray = type { ptr, i32, i32 }
%struct.b2JointSimArray = type { ptr, i32, i32 }
%union.anon = type { ptr }
%struct.b2BodyArray = type { ptr, i32, i32 }
%struct.b2SolverSetArray = type { ptr, i32, i32 }
%struct.b2JointArray = type { ptr, i32, i32 }
%struct.b2ContactArray = type { ptr, i32, i32 }
%struct.b2IslandArray = type { ptr, i32, i32 }
%struct.b2IdPool = type { %struct.b2IntArray, i32 }
%struct.b2ShapeArray = type { ptr, i32, i32 }
%struct.b2ChainShapeArray = type { ptr, i32, i32 }
%struct.b2SensorArray = type { ptr, i32, i32 }
%struct.b2TaskContextArray = type { ptr, i32, i32 }
%struct.b2SensorTaskContextArray = type { ptr, i32, i32 }
%struct.b2BodyMoveEventArray = type { ptr, i32, i32 }
%struct.b2SensorBeginTouchEventArray = type { ptr, i32, i32 }
%struct.b2ContactBeginTouchEventArray = type { ptr, i32, i32 }
%struct.b2SensorEndTouchEventArray = type { ptr, i32, i32 }
%struct.b2ContactEndTouchEventArray = type { ptr, i32, i32 }
%struct.b2ContactHitEventArray = type { ptr, i32, i32 }
%struct.b2BitSet = type { ptr, i32, i32 }
%struct.b2Vec2 = type { float, float }
%struct.b2Profile = type { float, float, float, float, float, float, float, float, float, float, float, float, float, float, float, float, float, float, float, float, float, float }
%struct.b2Joint = type { ptr, i32, i32, i32, [2 x %struct.b2JointEdge], i32, i32, i32, i32, float, i32, i16, i8, i8 }
%struct.b2JointEdge = type { i32, i32, i32 }
%struct.b2JointId = type { i32, i16, i16 }

@b2_worlds = hidden global [128 x %struct.b2World] zeroinitializer, align 16

; Function Attrs: nounwind uwtable
define zeroext i1 @b2Joint_IsValid(i64 %0) #0 {
  %2 = alloca i1, align 1
  %3 = alloca %struct.b2JointId, align 4
  %4 = alloca ptr, align 8
  %5 = alloca i32, align 4
  %6 = alloca i32, align 4
  %7 = alloca ptr, align 8
  store i64 %0, ptr %3, align 4
  %8 = getelementptr inbounds nuw %struct.b2JointId, ptr %3, i32 0, i32 1
  %9 = load i16, ptr %8, align 4, !tbaa !452
  %10 = zext i16 %9 to i32
  %11 = icmp slt i32 %10, 0
  br i1 %11, label %17, label %12

12:                                               ; preds = %1
  %13 = getelementptr inbounds nuw %struct.b2JointId, ptr %3, i32 0, i32 1
  %14 = load i16, ptr %13, align 4, !tbaa !452
  %15 = zext i16 %14 to i32
  %16 = icmp sle i32 128, %15
  br i1 %16, label %17, label %18

17:                                               ; preds = %12, %1
  store i1 false, ptr %2, align 1
  br label %72

18:                                               ; preds = %12
  call void @llvm.lifetime.start.p0(i64 8, ptr %4) #10
  %19 = getelementptr inbounds nuw %struct.b2JointId, ptr %3, i32 0, i32 1
  %20 = load i16, ptr %19, align 4, !tbaa !452
  %21 = zext i16 %20 to i32
  %22 = sext i32 %21 to i64
  %23 = getelementptr inbounds %struct.b2World, ptr @b2_worlds, i64 %22
  store ptr %23, ptr %4, align 8, !tbaa !47
  %24 = load ptr, ptr %4, align 8, !tbaa !47
  %25 = getelementptr inbounds nuw %struct.b2World, ptr %24, i32 0, i32 58
  %26 = load i16, ptr %25, align 4, !tbaa !126
  %27 = zext i16 %26 to i32
  %28 = getelementptr inbounds nuw %struct.b2JointId, ptr %3, i32 0, i32 1
  %29 = load i16, ptr %28, align 4, !tbaa !452
  %30 = zext i16 %29 to i32
  %31 = icmp ne i32 %27, %30
  br i1 %31, label %32, label %33

32:                                               ; preds = %18
  store i1 false, ptr %2, align 1
  store i32 1, ptr %5, align 4
  br label %71

33:                                               ; preds = %18
  call void @llvm.lifetime.start.p0(i64 4, ptr %6) #10
  %34 = getelementptr inbounds nuw %struct.b2JointId, ptr %3, i32 0, i32 0
  %35 = load i32, ptr %34, align 4, !tbaa !454
  %36 = sub nsw i32 %35, 1
  store i32 %36, ptr %6, align 4, !tbaa !3
  %37 = load i32, ptr %6, align 4, !tbaa !3
  %38 = icmp slt i32 %37, 0
  br i1 %38, label %46, label %39

39:                                               ; preds = %33
  %40 = load ptr, ptr %4, align 8, !tbaa !47
  %41 = getelementptr inbounds nuw %struct.b2World, ptr %40, i32 0, i32 8
  %42 = getelementptr inbounds nuw %struct.b2JointArray, ptr %41, i32 0, i32 1
  %43 = load i32, ptr %42, align 8, !tbaa !332
  %44 = load i32, ptr %6, align 4, !tbaa !3
  %45 = icmp sle i32 %43, %44
  br i1 %45, label %46, label %47

46:                                               ; preds = %39, %33
  store i1 false, ptr %2, align 1
  store i32 1, ptr %5, align 4
  br label %70

47:                                               ; preds = %39
  call void @llvm.lifetime.start.p0(i64 8, ptr %7) #10
  %48 = load ptr, ptr %4, align 8, !tbaa !47
  %49 = getelementptr inbounds nuw %struct.b2World, ptr %48, i32 0, i32 8
  %50 = getelementptr inbounds nuw %struct.b2JointArray, ptr %49, i32 0, i32 0
  %51 = load ptr, ptr %50, align 8, !tbaa !333
  %52 = load i32, ptr %6, align 4, !tbaa !3
  %53 = sext i32 %52 to i64
  %54 = getelementptr inbounds %struct.b2Joint, ptr %51, i64 %53
  store ptr %54, ptr %7, align 8, !tbaa !110
  %55 = load ptr, ptr %7, align 8, !tbaa !110
  %56 = getelementptr inbounds nuw %struct.b2Joint, ptr %55, i32 0, i32 5
  %57 = load i32, ptr %56, align 4, !tbaa !455
  %58 = icmp eq i32 %57, -1
  br i1 %58, label %59, label %60

59:                                               ; preds = %47
  store i1 false, ptr %2, align 1
  store i32 1, ptr %5, align 4
  br label %69

60:                                               ; preds = %47
  %61 = getelementptr inbounds nuw %struct.b2JointId, ptr %3, i32 0, i32 2
  %62 = load i16, ptr %61, align 2, !tbaa !456
  %63 = zext i16 %62 to i32
  %64 = load ptr, ptr %7, align 8, !tbaa !110
  %65 = getelementptr inbounds nuw %struct.b2Joint, ptr %64, i32 0, i32 11
  %66 = load i16, ptr %65, align 4, !tbaa !457
  %67 = zext i16 %66 to i32
  %68 = icmp eq i32 %63, %67
  store i1 %68, ptr %2, align 1
  store i32 1, ptr %5, align 4
  br label %69

69:                                               ; preds = %60, %59
  call void @llvm.lifetime.end.p0(i64 8, ptr %7) #10
  br label %70

70:                                               ; preds = %69, %46
  call void @llvm.lifetime.end.p0(i64 4, ptr %6) #10
  br label %71

71:                                               ; preds = %70, %32
  call void @llvm.lifetime.end.p0(i64 8, ptr %4) #10
  br label %72

72:                                               ; preds = %71, %17
  %73 = load i1, ptr %2, align 1
  ret i1 %73
}