; Function Attrs: mustprogress nofree norecurse nosync nounwind willreturn memory(read, inaccessiblemem: none) uwtable
define zeroext i1 @b2Joint_IsValid(i64 %0) local_unnamed_addr #11 {
  %.sroa.0.0.extract.trunc = trunc i64 %0 to i32
  %.sroa.6.0.extract.shift = lshr i64 %0, 48
  %2 = and i64 %0, 280925220896768
  %.not16 = icmp eq i64 %2, 0
  br i1 %.not16, label %3, label %28

3:                                                ; preds = %1
  %.sroa.2.0.extract.shift = lshr i64 %0, 32
  %4 = and i64 %.sroa.2.0.extract.shift, 127
  %5 = getelementptr inbounds nuw %struct.b2World, ptr @b2_worlds, i64 %4
  %6 = getelementptr inbounds nuw i8, ptr %5, i64 1780
  %7 = load i16, ptr %6, align 4, !tbaa !83
  %8 = trunc i64 %.sroa.2.0.extract.shift to i16
  %.not = icmp eq i16 %7, %8
  br i1 %.not, label %9, label %28

9:                                                ; preds = %3
  %10 = add nuw nsw i64 %0, 4294967295
  %11 = icmp slt i32 %.sroa.0.0.extract.trunc, 1
  br i1 %11, label %28, label %12

12:                                               ; preds = %9
  %13 = getelementptr inbounds nuw i8, ptr %5, i64 1120
  %14 = load i32, ptr %13, align 16, !tbaa !328
  %.not17.not = icmp slt i32 %14, %.sroa.0.0.extract.trunc
  br i1 %.not17.not, label %28, label %15

15:                                               ; preds = %12
  %16 = getelementptr inbounds nuw i8, ptr %5, i64 1112
  %17 = load ptr, ptr %16, align 8, !tbaa !329
  %18 = and i64 %10, 4294967295
  %19 = getelementptr inbounds nuw %struct.b2Joint, ptr %17, i64 %18
  %20 = getelementptr inbounds nuw i8, ptr %19, i64 44
  %21 = load i32, ptr %20, align 4, !tbaa !374
  %22 = icmp eq i32 %21, -1
  br i1 %22, label %28, label %23

23:                                               ; preds = %15
  %24 = getelementptr inbounds nuw i8, ptr %19, i64 68
  %25 = load i16, ptr %24, align 4, !tbaa !375
  %26 = zext i16 %25 to i64
  %27 = icmp eq i64 %.sroa.6.0.extract.shift, %26
  br label %28

28:                                               ; preds = %3, %23, %15, %9, %12, %1
  %.0 = phi i1 [ false, %1 ], [ false, %3 ], [ false, %12 ], [ false, %9 ], [ %27, %23 ], [ false, %15 ]
  ret i1 %.0
}